target datalayout = "e-m:e-p270:32:32-p271:32:32-p272:64:64-i64:64-i128:128-f80:128-n8:16:32:64-S128"
target triple = "x86_64-pc-linux-gnu"

%struct.cache_ref_iterator = type { %struct.ref_iterator, i64, i64, ptr, ptr, ptr }
%struct.ref_iterator = type { ptr, ptr, ptr, ptr, i32 }

; Function Attrs: nounwind uwtable
define internal i32 @cache_ref_iterator_peel(ptr noundef %0, ptr noundef %1) #0 {
  %3 = alloca ptr, align 8
  %4 = alloca ptr, align 8
  %5 = alloca ptr, align 8
  store ptr %0, ptr %3, align 8, !tbaa !52
  store ptr %1, ptr %4, align 8, !tbaa !29
  call void @llvm.lifetime.start.p0(i64 8, ptr %5) #10
  %6 = load ptr, ptr %3, align 8, !tbaa !52
  store ptr %6, ptr %5, align 8, !tbaa !50
  %7 = load ptr, ptr %5, align 8, !tbaa !50
  %8 = getelementptr inbounds nuw %struct.cache_ref_iterator, ptr %7, i32 0, i32 5
  %9 = load ptr, ptr %8, align 8, !tbaa !67
  %10 = load ptr, ptr %3, align 8, !tbaa !52
  %11 = getelementptr inbounds nuw %struct.ref_iterator, ptr %10, i32 0, i32 3
  %12 = load ptr, ptr %11, align 8, !tbaa !75
  %13 = load ptr, ptr %4, align 8, !tbaa !29
  %14 = call i32 @peel_object(ptr noundef %9, ptr noundef %12, ptr noundef %13)
  %15 = icmp ne i32 %14, 0
  %16 = select i1 %15, i32 -1, i32 0
  call void @llvm.lifetime.end.p0(i64 8, ptr %5) #10
  ret i32 %16
}