; Function Attrs: nounwind uwtable
define internal range(i32 -1, 1) i32 @cache_ref_iterator_peel(ptr noundef readonly captures(none) %0, ptr noundef %1) #0 {
  %3 = getelementptr inbounds nuw i8, ptr %0, i64 72
  %4 = load ptr, ptr %3, align 8, !tbaa !48
  %5 = getelementptr inbounds nuw i8, ptr %0, i64 24
  %6 = load ptr, ptr %5, align 8, !tbaa !55
  %7 = tail call i32 @peel_object(ptr noundef %4, ptr noundef %6, ptr noundef %1) #11
  %.not = icmp ne i32 %7, 0
  %8 = sext i1 %.not to i32
  ret i32 %8
}